target datalayout = "e-m:e-p270:32:32-p271:32:32-p272:64:64-i64:64-i128:128-f80:128-n8:16:32:64-S128"
target triple = "x86_64-pc-linux-gnu"

%struct.GtkRequisition = type { i32, i32 }
%struct._GtkWidget = type { %struct.GtkObject, i16, i8, i8, ptr, ptr, %struct.GtkRequisition, %struct.GtkAllocation, ptr, ptr }
%struct.GtkObject = type { %struct.GObject, i32 }
%struct.GObject = type { %struct.GTypeInstance, i32, ptr }
%struct.GTypeInstance = type { ptr }
%struct.GtkAllocation = type { i32, i32, i32, i32 }
%struct.GtkBin = type { %struct.GtkContainer, ptr }
%struct.GtkContainer = type { %struct._GtkWidget, ptr, i32 }
%struct.GtkToggleButton = type { %struct.GtkButton, i8 }
%struct.GtkButton = type { %struct.GtkBin, ptr, ptr, i32, i16 }

@fp_gtk_paint_option = internal global ptr null, align 8
@gtk2_white_pixmap = internal global ptr null, align 8
@gtk2_black_pixmap = internal global ptr null, align 8
@gtk2_widget = internal global ptr null, align 8

; Function Attrs: nounwind uwtable
define internal void @init_toggle_widget(i32 noundef %0, i32 noundef %1) #0 {
  %3 = alloca i32, align 4
  %4 = alloca i32, align 4
  %5 = alloca i32, align 4
  store i32 %0, ptr %3, align 4
  store i32 %1, ptr %4, align 4
  %6 = load i32, ptr %4, align 4
  %7 = and i32 %6, 512
  %8 = icmp ne i32 %7, 0
  %9 = zext i1 %8 to i32
  store i32 %9, ptr %5, align 4
  %10 = load i32, ptr %3, align 4
  %11 = icmp eq i32 %10, 37
  br i1 %11, label %18, label %12

12:                                               ; preds = %2
  %13 = load i32, ptr %3, align 4
  %14 = icmp eq i32 %13, 1
  br i1 %14, label %18, label %15

15:                                               ; preds = %12
  %16 = load i32, ptr %3, align 4
  %17 = icmp eq i32 %16, 55
  br i1 %17, label %18, label %27

18:                                               ; preds = %15, %12, %2
  %19 = load i32, ptr %5, align 4
  %20 = load ptr, ptr @gtk2_widget, align 8
  %21 = getelementptr inbounds %struct.GtkToggleButton, ptr %20, i32 0, i32 1
  %22 = trunc i32 %19 to i8
  %23 = load i8, ptr %21, align 8
  %24 = and i8 %22, 1
  %25 = and i8 %23, -2
  %26 = or i8 %25, %24
  store i8 %26, ptr %21, align 8
  br label %27

27:                                               ; preds = %18, %15
  %28 = load i32, ptr %4, align 4
  %29 = and i32 %28, 256
  %30 = icmp ne i32 %29, 0
  br i1 %30, label %31, label %36

31:                                               ; preds = %27
  %32 = load ptr, ptr @gtk2_widget, align 8
  %33 = getelementptr inbounds %struct.GtkObject, ptr %32, i32 0, i32 1
  %34 = load i32, ptr %33, align 8
  %35 = or i32 %34, 4096
  store i32 %35, ptr %33, align 8
  br label %41

36:                                               ; preds = %27
  %37 = load ptr, ptr @gtk2_widget, align 8
  %38 = getelementptr inbounds %struct.GtkObject, ptr %37, i32 0, i32 1
  %39 = load i32, ptr %38, align 8
  %40 = and i32 %39, -4097
  store i32 %40, ptr %38, align 8
  br label %41

41:                                               ; preds = %36, %31
  %42 = load i32, ptr %4, align 4
  %43 = and i32 %42, 2
  %44 = icmp ne i32 %43, 0
  br i1 %44, label %45, label %49

45:                                               ; preds = %41
  %46 = load i32, ptr %4, align 4
  %47 = and i32 %46, 4
  %48 = icmp eq i32 %47, 0
  br i1 %48, label %57, label %49

49:                                               ; preds = %45, %41
  %50 = load i32, ptr %4, align 4
  %51 = and i32 %50, 256
  %52 = icmp ne i32 %51, 0
  br i1 %52, label %53, label %60

53:                                               ; preds = %49
  %54 = load i32, ptr %4, align 4
  %55 = and i32 %54, 4
  %56 = icmp ne i32 %55, 0
  br i1 %56, label %57, label %60

57:                                               ; preds = %53, %45
  %58 = load ptr, ptr @gtk2_widget, align 8
  %59 = getelementptr inbounds %struct._GtkWidget, ptr %58, i32 0, i32 2
  store i8 2, ptr %59, align 2
  br label %75

60:                                               ; preds = %53, %49
  %61 = load i32, ptr %4, align 4
  %62 = and i32 %61, 8
  %63 = icmp ne i32 %62, 0
  br i1 %63, label %64, label %67

64:                                               ; preds = %60
  %65 = load ptr, ptr @gtk2_widget, align 8
  %66 = getelementptr inbounds %struct._GtkWidget, ptr %65, i32 0, i32 2
  store i8 4, ptr %66, align 2
  br label %74

67:                                               ; preds = %60
  %68 = load i32, ptr %5, align 4
  %69 = icmp ne i32 %68, 0
  %70 = select i1 %69, i32 1, i32 0
  %71 = trunc i32 %70 to i8
  %72 = load ptr, ptr @gtk2_widget, align 8
  %73 = getelementptr inbounds %struct._GtkWidget, ptr %72, i32 0, i32 2
  store i8 %71, ptr %73, align 2
  br label %74

74:                                               ; preds = %67, %64
  br label %75

75:                                               ; preds = %74, %57
  ret void
}

; Function Attrs: nounwind uwtable
define internal i32 @get_gtk_shadow_type(i32 noundef %0, i32 noundef %1) #0 {
  %3 = alloca i32, align 4
  %4 = alloca i32, align 4
  %5 = alloca i32, align 4
  store i32 %0, ptr %3, align 4
  store i32 %1, ptr %4, align 4
  store i32 2, ptr %5, align 4
  %6 = load i32, ptr %4, align 4
  %7 = and i32 %6, 512
  %8 = icmp ne i32 %7, 0
  br i1 %8, label %9, label %10

9:                                                ; preds = %2
  store i32 1, ptr %5, align 4
  br label %10

10:                                               ; preds = %9, %2
  %11 = load i32, ptr %5, align 4
  ret i32 %11
}

; Function Attrs: nounwind uwtable
define internal i32 @get_gtk_state_type(i32 noundef %0, i32 noundef %1) #0 {
  %3 = alloca i32, align 4
  %4 = alloca i32, align 4
  %5 = alloca i32, align 4
  store i32 %0, ptr %3, align 4
  store i32 %1, ptr %4, align 4
  store i32 0, ptr %5, align 4
  %6 = load i32, ptr %4, align 4
  %7 = and i32 %6, 8
  %8 = icmp ne i32 %7, 0
  br i1 %8, label %9, label %10

9:                                                ; preds = %2
  store i32 4, ptr %5, align 4
  br label %22

10:                                               ; preds = %2
  %11 = load i32, ptr %4, align 4
  %12 = and i32 %11, 4
  %13 = icmp ne i32 %12, 0
  br i1 %13, label %14, label %15

14:                                               ; preds = %10
  store i32 1, ptr %5, align 4
  br label %21

15:                                               ; preds = %10
  %16 = load i32, ptr %4, align 4
  %17 = and i32 %16, 2
  %18 = icmp ne i32 %17, 0
  br i1 %18, label %19, label %20

19:                                               ; preds = %15
  store i32 2, ptr %5, align 4
  br label %20

20:                                               ; preds = %19, %15
  br label %21

21:                                               ; preds = %20, %14
  br label %22

22:                                               ; preds = %21, %9
  %23 = load i32, ptr %5, align 4
  ret i32 %23
}

; Function Attrs: nounwind uwtable
define internal void @gtk2_paint_option(i32 noundef %0, i32 noundef %1, ptr noundef %2, i32 noundef %3, i32 noundef %4, i32 noundef %5, i32 noundef %6) #0 {
  %8 = alloca i32, align 4
  %9 = alloca i32, align 4
  %10 = alloca ptr, align 8
  %11 = alloca i32, align 4
  %12 = alloca i32, align 4
  %13 = alloca i32, align 4
  %14 = alloca i32, align 4
  %15 = alloca i32, align 4
  %16 = alloca i32, align 4
  store i32 %0, ptr %8, align 4
  store i32 %1, ptr %9, align 4
  store ptr %2, ptr %10, align 8
  store i32 %3, ptr %11, align 4
  store i32 %4, ptr %12, align 4
  store i32 %5, ptr %13, align 4
  store i32 %6, ptr %14, align 4
  %17 = load i32, ptr %8, align 4
  %18 = load i32, ptr %9, align 4
  %19 = call i32 @get_gtk_state_type(i32 noundef %17, i32 noundef %18)
  store i32 %19, ptr %15, align 4
  %20 = load i32, ptr %8, align 4
  %21 = load i32, ptr %9, align 4
  %22 = call i32 @get_gtk_shadow_type(i32 noundef %20, i32 noundef %21)
  store i32 %22, ptr %16, align 4
  %23 = load i32, ptr %8, align 4
  %24 = call ptr @gtk2_get_widget(i32 noundef %23)
  store ptr %24, ptr @gtk2_widget, align 8
  %25 = load i32, ptr %8, align 4
  %26 = load i32, ptr %9, align 4
  call void @init_toggle_widget(i32 noundef %25, i32 noundef %26)
  %27 = load ptr, ptr @fp_gtk_paint_option, align 8
  %28 = load ptr, ptr @gtk2_widget, align 8
  %29 = getelementptr inbounds %struct._GtkWidget, ptr %28, i32 0, i32 5
  %30 = load ptr, ptr %29, align 8
  %31 = load ptr, ptr @gtk2_white_pixmap, align 8
  %32 = load i32, ptr %15, align 4
  %33 = load i32, ptr %16, align 4
  %34 = load ptr, ptr @gtk2_widget, align 8
  %35 = load ptr, ptr %10, align 8
  %36 = load i32, ptr %11, align 4
  %37 = load i32, ptr %12, align 4
  %38 = load i32, ptr %13, align 4
  %39 = load i32, ptr %14, align 4
  call void %27(ptr noundef %30, ptr noundef %31, i32 noundef %32, i32 noundef %33, ptr noundef null, ptr noundef %34, ptr noundef %35, i32 noundef %36, i32 noundef %37, i32 noundef %38, i32 noundef %39)
  %40 = load ptr, ptr @fp_gtk_paint_option, align 8
  %41 = load ptr, ptr @gtk2_widget, align 8
  %42 = getelementptr inbounds %struct._GtkWidget, ptr %41, i32 0, i32 5
  %43 = load ptr, ptr %42, align 8
  %44 = load ptr, ptr @gtk2_black_pixmap, align 8
  %45 = load i32, ptr %15, align 4
  %46 = load i32, ptr %16, align 4
  %47 = load ptr, ptr @gtk2_widget, align 8
  %48 = load ptr, ptr %10, align 8
  %49 = load i32, ptr %11, align 4
  %50 = load i32, ptr %12, align 4
  %51 = load i32, ptr %13, align 4
  %52 = load i32, ptr %14, align 4
  call void %40(ptr noundef %43, ptr noundef %44, i32 noundef %45, i32 noundef %46, ptr noundef null, ptr noundef %47, ptr noundef %48, i32 noundef %49, i32 noundef %50, i32 noundef %51, i32 noundef %52)
  ret void
}