; Function Attrs: nounwind uwtable
define internal void @gtk2_paint_option(i32 noundef %0, i32 noundef %1, ptr noundef %2, i32 noundef %3, i32 noundef %4, i32 noundef %5, i32 noundef %6) #0 {
  %8 = tail call fastcc ptr @gtk2_get_widget(i32 noundef %0)
  store ptr %8, ptr @gtk2_widget, align 8
  switch i32 %0, label %.init_toggle_widget.exit_crit_edge [
    i32 55, label %9
    i32 37, label %9
    i32 1, label %9
  ]

.init_toggle_widget.exit_crit_edge:               ; preds = %7
  %.pre = lshr i32 %1, 9
  %.pre22 = trunc i32 %.pre to i8
  %.pre24 = and i8 %.pre22, 1
  br label %init_toggle_widget.exit

9:                                                ; preds = %7, %7, %7
  %10 = getelementptr inbounds i8, ptr %8, i64 144
  %.lobit.i = lshr i32 %1, 9
  %11 = trunc i32 %.lobit.i to i8
  %12 = load i8, ptr %10, align 8
  %13 = and i8 %11, 1
  %14 = and i8 %12, -2
  %15 = or disjoint i8 %14, %13
  store i8 %15, ptr %10, align 8
  br label %init_toggle_widget.exit

init_toggle_widget.exit:                          ; preds = %.init_toggle_widget.exit_crit_edge, %9
  %.pre-phi25 = phi i8 [ %.pre24, %.init_toggle_widget.exit_crit_edge ], [ %13, %9 ]
  %16 = and i32 %1, 512
  %.not.i20 = icmp eq i32 %16, 0
  %spec.store.select.i = select i1 %.not.i20, i32 2, i32 1
  %17 = and i32 %1, 8
  %.not.i.not = icmp eq i32 %17, 0
  %18 = and i32 %1, 4
  %.not4.i = icmp eq i32 %18, 0
  %19 = and i32 %1, 2
  %spec.select.i = select i1 %.not4.i, i32 %19, i32 1
  %.0.i = select i1 %.not.i.not, i32 %spec.select.i, i32 4
  %20 = getelementptr inbounds i8, ptr %8, i64 24
  %21 = load i32, ptr %20, align 8
  %22 = and i32 %21, -4097
  %23 = shl i32 %1, 4
  %masksel.i = and i32 %23, 4096
  %.sink.i = or disjoint i32 %22, %masksel.i
  store i32 %.sink.i, ptr %20, align 8
  %24 = and i32 %1, 6
  %or.cond.i = icmp eq i32 %24, 2
  %25 = and i32 %1, 260
  %or.cond21.i = icmp eq i32 %25, 260
  %or.cond22.i.not21 = or i1 %or.cond.i, %or.cond21.i
  %.mux = select i1 %.not.i.not, i8 %.pre-phi25, i8 4
  %.sink23.i = select i1 %or.cond22.i.not21, i8 2, i8 %.mux
  %26 = getelementptr inbounds i8, ptr %8, i64 34
  store i8 %.sink23.i, ptr %26, align 2
  %27 = load ptr, ptr @fp_gtk_paint_option, align 8
  %28 = getelementptr inbounds i8, ptr %8, i64 48
  %29 = load ptr, ptr %28, align 8
  %30 = load ptr, ptr @gtk2_white_pixmap, align 8
  tail call void %27(ptr noundef %29, ptr noundef %30, i32 noundef %.0.i, i32 noundef %spec.store.select.i, ptr noundef null, ptr noundef nonnull %8, ptr noundef %2, i32 noundef %3, i32 noundef %4, i32 noundef %5, i32 noundef %6) #18
  %31 = load ptr, ptr @fp_gtk_paint_option, align 8
  %32 = load ptr, ptr @gtk2_widget, align 8
  %33 = getelementptr inbounds i8, ptr %32, i64 48
  %34 = load ptr, ptr %33, align 8
  %35 = load ptr, ptr @gtk2_black_pixmap, align 8
  tail call void %31(ptr noundef %34, ptr noundef %35, i32 noundef %.0.i, i32 noundef %spec.store.select.i, ptr noundef null, ptr noundef %32, ptr noundef %2, i32 noundef %3, i32 noundef %4, i32 noundef %5, i32 noundef %6) #18
  ret void
}